target datalayout = "e-m:e-p270:32:32-p271:32:32-p272:64:64-i64:64-i128:128-f80:128-n8:16:32:64-S128"
target triple = "x86_64-pc-linux-gnu"

%struct.hb_ot_shape_planner_t = type { ptr, %struct.hb_segment_properties_t, %struct.hb_ot_map_builder_t, i8, ptr }
%struct.hb_segment_properties_t = type { i32, i32, ptr, ptr, ptr }
%struct.hb_ot_map_builder_t = type { ptr, %struct.hb_segment_properties_t, i8, [2 x i32], [2 x i8], [2 x i32], [2 x i32], [2 x i32], %struct.hb_vector_t.2, [2 x %struct.hb_vector_t.3] }
%struct.hb_vector_t.2 = type { i32, i32, ptr }
%struct.hb_vector_t.3 = type { i32, i32, ptr }

@_ZL22myanmar_basic_features = internal constant [4 x i32] [i32 1919969382, i32 1886545254, i32 1651275622, i32 1886614630], align 16
@_ZL22myanmar_other_features = internal constant [4 x i32] [i32 1886545267, i32 1633842803, i32 1651275635, i32 1886614643], align 16

; Function Attrs: mustprogress nounwind uwtable
define internal noundef i32 @_Zor25hb_ot_map_feature_flags_tS_(i32 noundef %0, i32 noundef %1) #1 {
  %3 = alloca i32, align 4
  %4 = alloca i32, align 4
  store i32 %0, ptr %3, align 4
  store i32 %1, ptr %4, align 4
  %5 = load i32, ptr %3, align 4
  %6 = load i32, ptr %4, align 4
  %7 = or i32 %5, %6
  ret i32 %7
}

; Function Attrs: mustprogress nounwind uwtable
define internal noundef i32 @_ZL12ARRAY_LENGTHIjLj4EEjRAT0__KT_(ptr noundef nonnull align 4 dereferenceable(16) %0) #1 {
  %2 = alloca ptr, align 8
  store ptr %0, ptr %2, align 8
  ret i32 4
}

; Function Attrs: mustprogress uwtable
define linkonce_odr hidden void @_ZN19hb_ot_map_builder_t14enable_featureEj25hb_ot_map_feature_flags_tj(ptr noundef nonnull align 8 dereferenceable(128) %0, i32 noundef %1, i32 noundef %2, i32 noundef %3) #0 comdat align 2 {
  %5 = alloca ptr, align 8
  %6 = alloca i32, align 4
  %7 = alloca i32, align 4
  %8 = alloca i32, align 4
  store ptr %0, ptr %5, align 8
  store i32 %1, ptr %6, align 4
  store i32 %2, ptr %7, align 4
  store i32 %3, ptr %8, align 4
  %9 = load ptr, ptr %5, align 8
  %10 = load i32, ptr %6, align 4
  %11 = load i32, ptr %7, align 4
  %12 = call noundef i32 @_Zor25hb_ot_map_feature_flags_tS_(i32 noundef 1, i32 noundef %11)
  %13 = load i32, ptr %8, align 4
  call void @_ZN19hb_ot_map_builder_t11add_featureEj25hb_ot_map_feature_flags_tj(ptr noundef nonnull align 8 dereferenceable(128) %9, i32 noundef %10, i32 noundef %12, i32 noundef %13)
  ret void
}

; Function Attrs: mustprogress uwtable
define linkonce_odr hidden void @_ZN19hb_ot_map_builder_t14add_gsub_pauseEPFbPK18hb_ot_shape_plan_tP9hb_font_tP11hb_buffer_tE(ptr noundef nonnull align 8 dereferenceable(128) %0, ptr noundef %1) #0 comdat align 2 {
  %3 = alloca ptr, align 8
  %4 = alloca ptr, align 8
  store ptr %0, ptr %3, align 8
  store ptr %1, ptr %4, align 8
  %5 = load ptr, ptr %3, align 8
  %6 = load ptr, ptr %4, align 8
  call void @_ZN19hb_ot_map_builder_t9add_pauseEjPFbPK18hb_ot_shape_plan_tP9hb_font_tP11hb_buffer_tE(ptr noundef nonnull align 8 dereferenceable(128) %5, i32 noundef 0, ptr noundef %6)
  ret void
}

; Function Attrs: mustprogress uwtable
define internal void @_ZL24collect_features_myanmarP21hb_ot_shape_planner_t(ptr noundef %0) #0 {
  %2 = alloca ptr, align 8
  %3 = alloca ptr, align 8
  %4 = alloca i32, align 4
  %5 = alloca i32, align 4
  store ptr %0, ptr %2, align 8
  %6 = load ptr, ptr %2, align 8
  %7 = getelementptr inbounds %struct.hb_ot_shape_planner_t, ptr %6, i32 0, i32 2
  store ptr %7, ptr %3, align 8
  %8 = load ptr, ptr %3, align 8
  call void @_ZN19hb_ot_map_builder_t14add_gsub_pauseEPFbPK18hb_ot_shape_plan_tP9hb_font_tP11hb_buffer_tE(ptr noundef nonnull align 8 dereferenceable(128) %8, ptr noundef @_ZL23setup_syllables_myanmarPK18hb_ot_shape_plan_tP9hb_font_tP11hb_buffer_t)
  %9 = load ptr, ptr %3, align 8
  call void @_ZN19hb_ot_map_builder_t14enable_featureEj25hb_ot_map_feature_flags_tj(ptr noundef nonnull align 8 dereferenceable(128) %9, i32 noundef 1819239276, i32 noundef 64, i32 noundef 1)
  %10 = load ptr, ptr %3, align 8
  call void @_ZN19hb_ot_map_builder_t14enable_featureEj25hb_ot_map_feature_flags_tj(ptr noundef nonnull align 8 dereferenceable(128) %10, i32 noundef 1667460464, i32 noundef 64, i32 noundef 1)
  %11 = load ptr, ptr %3, align 8
  call void @_ZN19hb_ot_map_builder_t14add_gsub_pauseEPFbPK18hb_ot_shape_plan_tP9hb_font_tP11hb_buffer_tE(ptr noundef nonnull align 8 dereferenceable(128) %11, ptr noundef @_ZL15reorder_myanmarPK18hb_ot_shape_plan_tP9hb_font_tP11hb_buffer_t)
  store i32 0, ptr %4, align 4
  br label %12

12:                                               ; preds = %24, %1
  %13 = load i32, ptr %4, align 4
  %14 = call noundef i32 @_ZL12ARRAY_LENGTHIjLj4EEjRAT0__KT_(ptr noundef nonnull align 4 dereferenceable(16) @_ZL22myanmar_basic_features)
  %15 = icmp ult i32 %13, %14
  br i1 %15, label %16, label %27

16:                                               ; preds = %12
  %17 = load ptr, ptr %3, align 8
  %18 = load i32, ptr %4, align 4
  %19 = zext i32 %18 to i64
  %20 = getelementptr inbounds [4 x i32], ptr @_ZL22myanmar_basic_features, i64 0, i64 %19
  %21 = load i32, ptr %20, align 4
  %22 = call noundef i32 @_Zor25hb_ot_map_feature_flags_tS_(i32 noundef 8, i32 noundef 64)
  call void @_ZN19hb_ot_map_builder_t14enable_featureEj25hb_ot_map_feature_flags_tj(ptr noundef nonnull align 8 dereferenceable(128) %17, i32 noundef %21, i32 noundef %22, i32 noundef 1)
  %23 = load ptr, ptr %3, align 8
  call void @_ZN19hb_ot_map_builder_t14add_gsub_pauseEPFbPK18hb_ot_shape_plan_tP9hb_font_tP11hb_buffer_tE(ptr noundef nonnull align 8 dereferenceable(128) %23, ptr noundef null)
  br label %24

24:                                               ; preds = %16
  %25 = load i32, ptr %4, align 4
  %26 = add i32 %25, 1
  store i32 %26, ptr %4, align 4
  br label %12, !llvm.loop !6

27:                                               ; preds = %12
  %28 = load ptr, ptr %3, align 8
  call void @_ZN19hb_ot_map_builder_t14add_gsub_pauseEPFbPK18hb_ot_shape_plan_tP9hb_font_tP11hb_buffer_tE(ptr noundef nonnull align 8 dereferenceable(128) %28, ptr noundef @_Z21hb_syllabic_clear_varPK18hb_ot_shape_plan_tP9hb_font_tP11hb_buffer_t)
  store i32 0, ptr %5, align 4
  br label %29

29:                                               ; preds = %39, %27
  %30 = load i32, ptr %5, align 4
  %31 = call noundef i32 @_ZL12ARRAY_LENGTHIjLj4EEjRAT0__KT_(ptr noundef nonnull align 4 dereferenceable(16) @_ZL22myanmar_other_features)
  %32 = icmp ult i32 %30, %31
  br i1 %32, label %33, label %42

33:                                               ; preds = %29
  %34 = load ptr, ptr %3, align 8
  %35 = load i32, ptr %5, align 4
  %36 = zext i32 %35 to i64
  %37 = getelementptr inbounds [4 x i32], ptr @_ZL22myanmar_other_features, i64 0, i64 %36
  %38 = load i32, ptr %37, align 4
  call void @_ZN19hb_ot_map_builder_t14enable_featureEj25hb_ot_map_feature_flags_tj(ptr noundef nonnull align 8 dereferenceable(128) %34, i32 noundef %38, i32 noundef 8, i32 noundef 1)
  br label %39

39:                                               ; preds = %33
  %40 = load i32, ptr %5, align 4
  %41 = add i32 %40, 1
  store i32 %41, ptr %5, align 4
  br label %29, !llvm.loop !8

42:                                               ; preds = %29
  ret void
}