; Function Attrs: mustprogress uwtable
define internal void @_ZL24collect_features_myanmarP21hb_ot_shape_planner_t(ptr noundef %0) #0 {
  %2 = getelementptr inbounds i8, ptr %0, i64 40
  tail call void @_ZN19hb_ot_map_builder_t9add_pauseEjPFbPK18hb_ot_shape_plan_tP9hb_font_tP11hb_buffer_tE(ptr noundef nonnull align 8 dereferenceable(128) %2, i32 noundef 0, ptr noundef nonnull @_ZL23setup_syllables_myanmarPK18hb_ot_shape_plan_tP9hb_font_tP11hb_buffer_t)
  tail call void @_ZN19hb_ot_map_builder_t11add_featureEj25hb_ot_map_feature_flags_tj(ptr noundef nonnull align 8 dereferenceable(128) %2, i32 noundef 1819239276, i32 noundef 65, i32 noundef 1)
  tail call void @_ZN19hb_ot_map_builder_t11add_featureEj25hb_ot_map_feature_flags_tj(ptr noundef nonnull align 8 dereferenceable(128) %2, i32 noundef 1667460464, i32 noundef 65, i32 noundef 1)
  tail call void @_ZN19hb_ot_map_builder_t9add_pauseEjPFbPK18hb_ot_shape_plan_tP9hb_font_tP11hb_buffer_tE(ptr noundef nonnull align 8 dereferenceable(128) %2, i32 noundef 0, ptr noundef nonnull @_ZL15reorder_myanmarPK18hb_ot_shape_plan_tP9hb_font_tP11hb_buffer_t)
  br label %3

3:                                                ; preds = %1, %3
  %indvars.iv = phi i64 [ 0, %1 ], [ %indvars.iv.next, %3 ]
  %4 = getelementptr inbounds [4 x i32], ptr @_ZL22myanmar_basic_features, i64 0, i64 %indvars.iv
  %5 = load i32, ptr %4, align 4
  tail call void @_ZN19hb_ot_map_builder_t11add_featureEj25hb_ot_map_feature_flags_tj(ptr noundef nonnull align 8 dereferenceable(128) %2, i32 noundef %5, i32 noundef 73, i32 noundef 1)
  tail call void @_ZN19hb_ot_map_builder_t9add_pauseEjPFbPK18hb_ot_shape_plan_tP9hb_font_tP11hb_buffer_tE(ptr noundef nonnull align 8 dereferenceable(128) %2, i32 noundef 0, ptr noundef null)
  %indvars.iv.next = add nuw nsw i64 %indvars.iv, 1
  %exitcond.not = icmp eq i64 %indvars.iv.next, 4
  br i1 %exitcond.not, label %6, label %3, !llvm.loop !6

6:                                                ; preds = %3
  tail call void @_ZN19hb_ot_map_builder_t9add_pauseEjPFbPK18hb_ot_shape_plan_tP9hb_font_tP11hb_buffer_tE(ptr noundef nonnull align 8 dereferenceable(128) %2, i32 noundef 0, ptr noundef nonnull @_Z21hb_syllabic_clear_varPK18hb_ot_shape_plan_tP9hb_font_tP11hb_buffer_t)
  br label %7

7:                                                ; preds = %6, %7
  %indvars.iv18 = phi i64 [ 0, %6 ], [ %indvars.iv.next19, %7 ]
  %8 = getelementptr inbounds [4 x i32], ptr @_ZL22myanmar_other_features, i64 0, i64 %indvars.iv18
  %9 = load i32, ptr %8, align 4
  tail call void @_ZN19hb_ot_map_builder_t11add_featureEj25hb_ot_map_feature_flags_tj(ptr noundef nonnull align 8 dereferenceable(128) %2, i32 noundef %9, i32 noundef 9, i32 noundef 1)
  %indvars.iv.next19 = add nuw nsw i64 %indvars.iv18, 1
  %exitcond21.not = icmp eq i64 %indvars.iv.next19, 4
  br i1 %exitcond21.not, label %10, label %7, !llvm.loop !8

10:                                               ; preds = %7
  ret void
}